target datalayout = "e-m:e-p270:32:32-p271:32:32-p272:64:64-i64:64-i128:128-f80:128-n8:16:32:64-S128"
target triple = "x86_64-pc-linux-gnu"

%"class.net::QuicFlowController" = type { ptr, i32, i32, i64, i64, i64, i64, i64, i64, i64, i8, i64, %"class.net::QuicTime" }
%"class.net::QuicTime" = type { i64 }

; Function Attrs: mustprogress nounwind uwtable
define noundef i64 @_ZNK3net18QuicFlowController14SendWindowSizeEv(ptr noundef nonnull align 8 dereferenceable(96) %0) #2 align 2 {
  %2 = alloca i64, align 8
  %3 = alloca ptr, align 8
  store ptr %0, ptr %3, align 8, !tbaa !3
  %4 = load ptr, ptr %3, align 8
  %5 = getelementptr inbounds nuw %"class.net::QuicFlowController", ptr %4, i32 0, i32 3
  %6 = load i64, ptr %5, align 8, !tbaa !23
  %7 = getelementptr inbounds nuw %"class.net::QuicFlowController", ptr %4, i32 0, i32 4
  %8 = load i64, ptr %7, align 8, !tbaa !24
  %9 = icmp ugt i64 %6, %8
  br i1 %9, label %10, label %11

10:                                               ; preds = %1
  store i64 0, ptr %2, align 8
  br label %17

11:                                               ; preds = %1
  %12 = getelementptr inbounds nuw %"class.net::QuicFlowController", ptr %4, i32 0, i32 4
  %13 = load i64, ptr %12, align 8, !tbaa !24
  %14 = getelementptr inbounds nuw %"class.net::QuicFlowController", ptr %4, i32 0, i32 3
  %15 = load i64, ptr %14, align 8, !tbaa !23
  %16 = sub i64 %13, %15
  store i64 %16, ptr %2, align 8
  br label %17

17:                                               ; preds = %11, %10
  %18 = load i64, ptr %2, align 8
  ret i64 %18
}

; Function Attrs: mustprogress uwtable
define noundef zeroext i1 @_ZNK3net18QuicFlowController9IsBlockedEv(ptr noundef nonnull align 8 dereferenceable(96) %0) #0 align 2 {
  %2 = alloca ptr, align 8
  store ptr %0, ptr %2, align 8, !tbaa !3
  %3 = load ptr, ptr %2, align 8
  %4 = call noundef i64 @_ZNK3net18QuicFlowController14SendWindowSizeEv(ptr noundef nonnull align 8 dereferenceable(96) %3)
  %5 = icmp eq i64 %4, 0
  ret i1 %5
}

; Function Attrs: mustprogress uwtable
define noundef zeroext i1 @_ZN3net18QuicFlowController22UpdateSendWindowOffsetEm(ptr noundef nonnull align 8 dereferenceable(96) %0, i64 noundef %1) #0 align 2 {
  %3 = alloca i1, align 1
  %4 = alloca ptr, align 8
  %5 = alloca i64, align 8
  %6 = alloca i8, align 1
  store ptr %0, ptr %4, align 8, !tbaa !3
  store i64 %1, ptr %5, align 8, !tbaa !14
  %7 = load ptr, ptr %4, align 8
  %8 = load i64, ptr %5, align 8, !tbaa !14
  %9 = getelementptr inbounds nuw %"class.net::QuicFlowController", ptr %7, i32 0, i32 4
  %10 = load i64, ptr %9, align 8, !tbaa !24
  %11 = icmp ule i64 %8, %10
  br i1 %11, label %12, label %13

12:                                               ; preds = %2
  store i1 false, ptr %3, align 1
  br label %20

13:                                               ; preds = %2
  call void @llvm.lifetime.start.p0(i64 1, ptr %6) #12
  %14 = call noundef zeroext i1 @_ZNK3net18QuicFlowController9IsBlockedEv(ptr noundef nonnull align 8 dereferenceable(96) %7)
  %15 = zext i1 %14 to i8
  store i8 %15, ptr %6, align 1, !tbaa !16
  %16 = load i64, ptr %5, align 8, !tbaa !14
  %17 = getelementptr inbounds nuw %"class.net::QuicFlowController", ptr %7, i32 0, i32 4
  store i64 %16, ptr %17, align 8, !tbaa !24
  %18 = load i8, ptr %6, align 1, !tbaa !16, !range !29, !noundef !30
  %19 = trunc i8 %18 to i1
  store i1 %19, ptr %3, align 1
  call void @llvm.lifetime.end.p0(i64 1, ptr %6) #12
  br label %20

20:                                               ; preds = %13, %12
  %21 = load i1, ptr %3, align 1
  ret i1 %21
}