; Function Attrs: mustprogress nofree norecurse nosync nounwind willreturn memory(argmem: readwrite) uwtable
define noundef zeroext i1 @_ZN3net18QuicFlowController22UpdateSendWindowOffsetEm(ptr noundef nonnull align 8 captures(none) dereferenceable(96) %0, i64 noundef %1) local_unnamed_addr #2 align 2 {
  %3 = getelementptr inbounds nuw i8, ptr %0, i64 24
  %4 = load i64, ptr %3, align 8, !tbaa !17
  %.not = icmp ugt i64 %1, %4
  br i1 %.not, label %5, label %9

5:                                                ; preds = %2
  %6 = getelementptr inbounds nuw i8, ptr %0, i64 16
  %7 = load i64, ptr %6, align 8, !tbaa !16
  %8 = icmp ule i64 %4, %7
  store i64 %1, ptr %3, align 8, !tbaa !17
  br label %9

9:                                                ; preds = %2, %5
  %.0 = phi i1 [ %8, %5 ], [ false, %2 ]
  ret i1 %.0
}